; Function Attrs: mustprogress uwtable
define internal void @_ZN12_GLOBAL__N_112VideoEmitter4haltEv(ptr noundef nonnull readonly align 8 captures(none) dereferenceable(24) %0) unnamed_addr #3 align 2 {
  %2 = getelementptr inbounds nuw i8, ptr %0, i64 8
  %3 = load ptr, ptr %2, align 8, !tbaa !748
  %4 = load ptr, ptr %3, align 8, !tbaa !3
  %5 = getelementptr inbounds nuw i8, ptr %4, i64 16
  %6 = load ptr, ptr %5, align 8
  tail call void %6(ptr noundef nonnull align 8 dereferenceable(24) %3)
  ret void
}